target datalayout = "e-m:e-p270:32:32-p271:32:32-p272:64:64-i64:64-i128:128-f80:128-n8:16:32:64-S128"
target triple = "x86_64-pc-linux-gnu"

%struct.Qureg = type { i32, i32, i32, i64, i64, i32, i32, %struct.ComplexArray, %struct.ComplexArray, %struct.ComplexArray, ptr, ptr, ptr, ptr, ptr, ptr }
%struct.ComplexArray = type { ptr, ptr }

; Function Attrs: nounwind uwtable
define double @statevec_calcTotalProb(ptr noundef byval(%struct.Qureg) align 8 %0) #0 {
  %2 = alloca double, align 8
  %3 = alloca double, align 8
  %4 = alloca double, align 8
  %5 = alloca double, align 8
  %6 = alloca i64, align 8
  %7 = alloca i64, align 8
  call void @llvm.lifetime.start.p0(i64 8, ptr %2) #6
  store double 0.000000e+00, ptr %2, align 8, !tbaa !8
  call void @llvm.lifetime.start.p0(i64 8, ptr %3) #6
  call void @llvm.lifetime.start.p0(i64 8, ptr %4) #6
  call void @llvm.lifetime.start.p0(i64 8, ptr %5) #6
  call void @llvm.lifetime.start.p0(i64 8, ptr %6) #6
  call void @llvm.lifetime.start.p0(i64 8, ptr %7) #6
  %8 = getelementptr inbounds nuw %struct.Qureg, ptr %0, i32 0, i32 3
  %9 = load i64, ptr %8, align 8, !tbaa !23
  store i64 %9, ptr %7, align 8, !tbaa !22
  store double 0.000000e+00, ptr %5, align 8, !tbaa !8
  store i64 0, ptr %6, align 8, !tbaa !22
  br label %10

10:                                               ; preds = %63, %1
  %11 = load i64, ptr %6, align 8, !tbaa !22
  %12 = load i64, ptr %7, align 8, !tbaa !22
  %13 = icmp slt i64 %11, %12
  br i1 %13, label %14, label %66

14:                                               ; preds = %10
  %15 = getelementptr inbounds nuw %struct.Qureg, ptr %0, i32 0, i32 7
  %16 = getelementptr inbounds nuw %struct.ComplexArray, ptr %15, i32 0, i32 0
  %17 = load ptr, ptr %16, align 8, !tbaa !19
  %18 = load i64, ptr %6, align 8, !tbaa !22
  %19 = getelementptr inbounds double, ptr %17, i64 %18
  %20 = load double, ptr %19, align 8, !tbaa !8
  %21 = getelementptr inbounds nuw %struct.Qureg, ptr %0, i32 0, i32 7
  %22 = getelementptr inbounds nuw %struct.ComplexArray, ptr %21, i32 0, i32 0
  %23 = load ptr, ptr %22, align 8, !tbaa !19
  %24 = load i64, ptr %6, align 8, !tbaa !22
  %25 = getelementptr inbounds double, ptr %23, i64 %24
  %26 = load double, ptr %25, align 8, !tbaa !8
  %27 = load double, ptr %5, align 8, !tbaa !8
  %28 = fneg double %27
  %29 = call double @llvm.fmuladd.f64(double %20, double %26, double %28)
  store double %29, ptr %3, align 8, !tbaa !8
  %30 = load double, ptr %2, align 8, !tbaa !8
  %31 = load double, ptr %3, align 8, !tbaa !8
  %32 = fadd double %30, %31
  store double %32, ptr %4, align 8, !tbaa !8
  %33 = load double, ptr %4, align 8, !tbaa !8
  %34 = load double, ptr %2, align 8, !tbaa !8
  %35 = fsub double %33, %34
  %36 = load double, ptr %3, align 8, !tbaa !8
  %37 = fsub double %35, %36
  store double %37, ptr %5, align 8, !tbaa !8
  %38 = load double, ptr %4, align 8, !tbaa !8
  store double %38, ptr %2, align 8, !tbaa !8
  %39 = getelementptr inbounds nuw %struct.Qureg, ptr %0, i32 0, i32 7
  %40 = getelementptr inbounds nuw %struct.ComplexArray, ptr %39, i32 0, i32 1
  %41 = load ptr, ptr %40, align 8, !tbaa !20
  %42 = load i64, ptr %6, align 8, !tbaa !22
  %43 = getelementptr inbounds double, ptr %41, i64 %42
  %44 = load double, ptr %43, align 8, !tbaa !8
  %45 = getelementptr inbounds nuw %struct.Qureg, ptr %0, i32 0, i32 7
  %46 = getelementptr inbounds nuw %struct.ComplexArray, ptr %45, i32 0, i32 1
  %47 = load ptr, ptr %46, align 8, !tbaa !20
  %48 = load i64, ptr %6, align 8, !tbaa !22
  %49 = getelementptr inbounds double, ptr %47, i64 %48
  %50 = load double, ptr %49, align 8, !tbaa !8
  %51 = load double, ptr %5, align 8, !tbaa !8
  %52 = fneg double %51
  %53 = call double @llvm.fmuladd.f64(double %44, double %50, double %52)
  store double %53, ptr %3, align 8, !tbaa !8
  %54 = load double, ptr %2, align 8, !tbaa !8
  %55 = load double, ptr %3, align 8, !tbaa !8
  %56 = fadd double %54, %55
  store double %56, ptr %4, align 8, !tbaa !8
  %57 = load double, ptr %4, align 8, !tbaa !8
  %58 = load double, ptr %2, align 8, !tbaa !8
  %59 = fsub double %57, %58
  %60 = load double, ptr %3, align 8, !tbaa !8
  %61 = fsub double %59, %60
  store double %61, ptr %5, align 8, !tbaa !8
  %62 = load double, ptr %4, align 8, !tbaa !8
  store double %62, ptr %2, align 8, !tbaa !8
  br label %63

63:                                               ; preds = %14
  %64 = load i64, ptr %6, align 8, !tbaa !22
  %65 = add nsw i64 %64, 1
  store i64 %65, ptr %6, align 8, !tbaa !22
  br label %10

66:                                               ; preds = %10
  %67 = load double, ptr %2, align 8, !tbaa !8
  call void @llvm.lifetime.end.p0(i64 8, ptr %7) #6
  call void @llvm.lifetime.end.p0(i64 8, ptr %6) #6
  call void @llvm.lifetime.end.p0(i64 8, ptr %5) #6
  call void @llvm.lifetime.end.p0(i64 8, ptr %4) #6
  call void @llvm.lifetime.end.p0(i64 8, ptr %3) #6
  call void @llvm.lifetime.end.p0(i64 8, ptr %2) #6
  ret double %67
}