; Function Attrs: nofree norecurse nosync nounwind memory(read, inaccessiblemem: none) uwtable
define double @statevec_calcTotalProb(ptr noundef readonly byval(%struct.Qureg) align 8 captures(none) %0) local_unnamed_addr #4 {
  %2 = getelementptr inbounds nuw i8, ptr %0, i64 16
  %3 = load i64, ptr %2, align 8, !tbaa !21
  %4 = icmp sgt i64 %3, 0
  br i1 %4, label %.lr.ph, label %._crit_edge

.lr.ph:                                           ; preds = %1
  %5 = getelementptr inbounds nuw i8, ptr %0, i64 40
  %6 = load ptr, ptr %5, align 8, !tbaa !8
  %7 = getelementptr inbounds nuw i8, ptr %0, i64 48
  %8 = load ptr, ptr %7, align 8, !tbaa !16
  br label %9

9:                                                ; preds = %.lr.ph, %9
  %.025 = phi double [ 0.000000e+00, %.lr.ph ], [ %21, %9 ]
  %.02124 = phi i64 [ 0, %.lr.ph ], [ %24, %9 ]
  %.02223 = phi double [ 0.000000e+00, %.lr.ph ], [ %23, %9 ]
  %10 = getelementptr inbounds nuw double, ptr %6, i64 %.02124
  %11 = load double, ptr %10, align 8, !tbaa !19
  %12 = fneg double %.02223
  %13 = tail call double @llvm.fmuladd.f64(double %11, double %11, double %12)
  %14 = fadd double %.025, %13
  %15 = fsub double %14, %.025
  %16 = fsub double %15, %13
  %17 = getelementptr inbounds nuw double, ptr %8, i64 %.02124
  %18 = load double, ptr %17, align 8, !tbaa !19
  %19 = fneg double %16
  %20 = tail call double @llvm.fmuladd.f64(double %18, double %18, double %19)
  %21 = fadd double %14, %20
  %22 = fsub double %21, %14
  %23 = fsub double %22, %20
  %24 = add nuw nsw i64 %.02124, 1
  %exitcond.not = icmp eq i64 %24, %3
  br i1 %exitcond.not, label %._crit_edge, label %9

._crit_edge:                                      ; preds = %9, %1
  %.0.lcssa = phi double [ 0.000000e+00, %1 ], [ %21, %9 ]
  ret double %.0.lcssa
}